SF:/media/topleft/garden/hcaptcha-rs/hcaptcha/src/domain/hcaptcha_client_response.rs
FN:9,_RNvMNtNtCs8FL3BOWiKQp_8hcaptcha6domain24hcaptcha_client_responseNtB2_22HcaptchaClientResponse5parse
FN:20,_RNvMNtNtCs8FL3BOWiKQp_8hcaptcha6domain24hcaptcha_client_responseNtB2_22HcaptchaClientResponse6as_str
FN:26,_RNvXs_NtNtCs8FL3BOWiKQp_8hcaptcha6domain24hcaptcha_client_responseNtB4_22HcaptchaClientResponseNtNtCs5cYH0lLSdLc_4core3fmt7Display3fmt
FN:5,_RNvXNvXNvNtNtCs8FL3BOWiKQp_8hcaptcha6domain24hcaptcha_client_response1__NtB7_22HcaptchaClientResponseNtNtCsg9y1yQVR4yU_5serde2de11Deserialize11deserializeNtB2_9___VisitorNtB1D_7Visitor9expecting
FN:5,_RINvXNvXNvNtNtCs8FL3BOWiKQp_8hcaptcha6domain24hcaptcha_client_response1__NtB8_22HcaptchaClientResponseNtNtCsg9y1yQVR4yU_5serde2de11Deserialize11deserializeNtB3_9___VisitorNtB1E_7Visitor20visit_newtype_structpEBc_
FN:5,_RINvXNvXNvNtNtCs8FL3BOWiKQp_8hcaptcha6domain24hcaptcha_client_response1__NtB8_22HcaptchaClientResponseNtNtCsg9y1yQVR4yU_5serde2de11Deserialize11deserializeNtB3_9___VisitorNtB1E_7Visitor9visit_seqpEBc_
FN:39,_RNvNtNtNtCs8FL3BOWiKQp_8hcaptcha6domain24hcaptcha_client_response5testss_34whitespace_only_names_are_rejected
FN:45,_RNvNtNtNtCs8FL3BOWiKQp_8hcaptcha6domain24hcaptcha_client_response5testss_24empty_string_is_rejected
FN:51,_RNvNtNtNtCs8FL3BOWiKQp_8hcaptcha6domain24hcaptcha_client_response5testss_41error_set_contains_missing_response_error
FN:60,_RNvNtNtNtCs8FL3BOWiKQp_8hcaptcha6domain24hcaptcha_client_response5testss_11test_as_str
FNDA:19,_RNvMNtNtCs8FL3BOWiKQp_8hcaptcha6domain24hcaptcha_client_responseNtB2_22HcaptchaClientResponse5parse
FNDA:1,_RNvMNtNtCs8FL3BOWiKQp_8hcaptcha6domain24hcaptcha_client_responseNtB2_22HcaptchaClientResponse6as_str
FNDA:5,_RNvXs_NtNtCs8FL3BOWiKQp_8hcaptcha6domain24hcaptcha_client_responseNtB4_22HcaptchaClientResponseNtNtCs5cYH0lLSdLc_4core3fmt7Display3fmt
FNDA:0,_RNvXNvXNvNtNtCs8FL3BOWiKQp_8hcaptcha6domain24hcaptcha_client_response1__NtB7_22HcaptchaClientResponseNtNtCsg9y1yQVR4yU_5serde2de11Deserialize11deserializeNtB2_9___VisitorNtB1D_7Visitor9expecting
FNDA:0,_RINvXNvXNvNtNtCs8FL3BOWiKQp_8hcaptcha6domain24hcaptcha_client_response1__NtB8_22HcaptchaClientResponseNtNtCsg9y1yQVR4yU_5serde2de11Deserialize11deserializeNtB3_9___VisitorNtB1E_7Visitor20visit_newtype_structpEBc_
FNDA:0,_RINvXNvXNvNtNtCs8FL3BOWiKQp_8hcaptcha6domain24hcaptcha_client_response1__NtB8_22HcaptchaClientResponseNtNtCsg9y1yQVR4yU_5serde2de11Deserialize11deserializeNtB3_9___VisitorNtB1E_7Visitor9visit_seqpEBc_
FNDA:1,_RNvNtNtNtCs8FL3BOWiKQp_8hcaptcha6domain24hcaptcha_client_response5testss_34whitespace_only_names_are_rejected
FNDA:1,_RNvNtNtNtCs8FL3BOWiKQp_8hcaptcha6domain24hcaptcha_client_response5testss_24empty_string_is_rejected
FNDA:1,_RNvNtNtNtCs8FL3BOWiKQp_8hcaptcha6domain24hcaptcha_client_response5testss_41error_set_contains_missing_response_error
FNDA:1,_RNvNtNtNtCs8FL3BOWiKQp_8hcaptcha6domain24hcaptcha_client_response5testss_11test_as_str
FNF:8
FNH:7
DA:5,0
DA:9,19
DA:10,19
DA:11,5
DA:12,5
DA:13,5
DA:14,5
DA:16,14
DA:18,19
DA:20,1
DA:21,1
DA:22,1
DA:26,5
DA:27,5
DA:28,5
DA:39,1
DA:40,1
DA:41,1
DA:42,1
DA:45,1
DA:46,1
DA:47,1
DA:48,1
DA:51,1
DA:52,1
DA:54,1
DA:55,1
DA:56,0
DA:57,1
DA:60,1
DA:61,1
DA:62,1
DA:63,1
BRF:0
BRH:0
LF:33
LH:31
end_of_record
SF:/media/topleft/garden/hcaptcha-rs/hcaptcha/src/domain/hcaptcha_remoteip.rs
FN:73,_RNvNtNtNtCs8FL3BOWiKQp_8hcaptcha6domain17hcaptcha_remoteip5testss_39whitespace_only_ip_strings_are_rejected
FN:79,_RNvNtNtNtCs8FL3BOWiKQp_8hcaptcha6domain17hcaptcha_remoteip5testss_24empty_string_is_rejected
FN:85,_RNvNtNtNtCs8FL3BOWiKQp_8hcaptcha6domain17hcaptcha_remoteip5testss_42error_set_contains_missing_ip_string_error
FN:93,_RNvNtNtNtCs8FL3BOWiKQp_8hcaptcha6domain17hcaptcha_remoteip5testss_42error_set_contains_invalid_ip_string_error
FN:105,_RNvNtNtNtCs8FL3BOWiKQp_8hcaptcha6domain17hcaptcha_remoteip5testss_31test_ip_string_key_is_valid_ip4
FN:111,_RNvNtNtNtCs8FL3BOWiKQp_8hcaptcha6domain17hcaptcha_remoteip5testss_31test_ip_string_key_is_valid_ip6
FN:7,_RNvXNvXNvNtNtCs8FL3BOWiKQp_8hcaptcha6domain17hcaptcha_remoteip1__NtB7_16HcaptchaRemoteipNtNtCsg9y1yQVR4yU_5serde2de11Deserialize11deserializeNtB2_9___VisitorNtB1q_7Visitor9expecting
FN:7,_RINvXNvXNvNtNtCs8FL3BOWiKQp_8hcaptcha6domain17hcaptcha_remoteip1__NtB8_16HcaptchaRemoteipNtNtCsg9y1yQVR4yU_5serde2de11Deserialize11deserializeNtB3_9___VisitorNtB1r_7Visitor20visit_newtype_structpEBc_
FN:7,_RINvXNvXNvNtNtCs8FL3BOWiKQp_8hcaptcha6domain17hcaptcha_remoteip1__NtB8_16HcaptchaRemoteipNtNtCsg9y1yQVR4yU_5serde2de11Deserialize11deserializeNtB3_9___VisitorNtB1r_7Visitor9visit_seqpEBc_
FN:11,_RNvXNtNtCs8FL3BOWiKQp_8hcaptcha6domain17hcaptcha_remoteipNtB2_16HcaptchaRemoteipNtNtCs5cYH0lLSdLc_4core3fmt7Display3fmt
FN:21,_RNvMs_NtNtCs8FL3BOWiKQp_8hcaptcha6domain17hcaptcha_remoteipNtB4_16HcaptchaRemoteip5parse
FN:33,_RNvNtNtCs8FL3BOWiKQp_8hcaptcha6domain17hcaptcha_remoteip15empty_ip_string
FN:50,_RNvNtNtCs8FL3BOWiKQp_8hcaptcha6domain17hcaptcha_remoteip17invalid_ip_string
FNDA:1,_RNvNtNtNtCs8FL3BOWiKQp_8hcaptcha6domain17hcaptcha_remoteip5testss_39whitespace_only_ip_strings_are_rejected
FNDA:1,_RNvNtNtNtCs8FL3BOWiKQp_8hcaptcha6domain17hcaptcha_remoteip5testss_24empty_string_is_rejected
FNDA:1,_RNvNtNtNtCs8FL3BOWiKQp_8hcaptcha6domain17hcaptcha_remoteip5testss_42error_set_contains_missing_ip_string_error
FNDA:1,_RNvNtNtNtCs8FL3BOWiKQp_8hcaptcha6domain17hcaptcha_remoteip5testss_42error_set_contains_invalid_ip_string_error
FNDA:1,_RNvNtNtNtCs8FL3BOWiKQp_8hcaptcha6domain17hcaptcha_remoteip5testss_31test_ip_string_key_is_valid_ip4
FNDA:1,_RNvNtNtNtCs8FL3BOWiKQp_8hcaptcha6domain17hcaptcha_remoteip5testss_31test_ip_string_key_is_valid_ip6
FNDA:0,_RNvXNvXNvNtNtCs8FL3BOWiKQp_8hcaptcha6domain17hcaptcha_remoteip1__NtB7_16HcaptchaRemoteipNtNtCsg9y1yQVR4yU_5serde2de11Deserialize11deserializeNtB2_9___VisitorNtB1q_7Visitor9expecting
FNDA:0,_RINvXNvXNvNtNtCs8FL3BOWiKQp_8hcaptcha6domain17hcaptcha_remoteip1__NtB8_16HcaptchaRemoteipNtNtCsg9y1yQVR4yU_5serde2de11Deserialize11deserializeNtB3_9___VisitorNtB1r_7Visitor20visit_newtype_structpEBc_
FNDA:0,_RINvXNvXNvNtNtCs8FL3BOWiKQp_8hcaptcha6domain17hcaptcha_remoteip1__NtB8_16HcaptchaRemoteipNtNtCsg9y1yQVR4yU_5serde2de11Deserialize11deserializeNtB3_9___VisitorNtB1r_7Visitor9visit_seqpEBc_
FNDA:1,_RNvXNtNtCs8FL3BOWiKQp_8hcaptcha6domain17hcaptcha_remoteipNtB2_16HcaptchaRemoteipNtNtCs5cYH0lLSdLc_4core3fmt7Display3fmt
FNDA:14,_RNvMs_NtNtCs8FL3BOWiKQp_8hcaptcha6domain17hcaptcha_remoteipNtB4_16HcaptchaRemoteip5parse
FNDA:14,_RNvNtNtCs8FL3BOWiKQp_8hcaptcha6domain17hcaptcha_remoteip15empty_ip_string
FNDA:11,_RNvNtNtCs8FL3BOWiKQp_8hcaptcha6domain17hcaptcha_remoteip17invalid_ip_string
FNF:11
FNH:10
DA:7,0
DA:11,1
DA:12,1
DA:13,1
DA:21,14
DA:22,14
DA:23,11
DA:25,9
DA:26,14
DA:33,14
DA:34,14
DA:35,3
DA:36,3
DA:37,3
DA:38,3
DA:39,3
DA:40,3
DA:42,11
DA:44,14
DA:50,11
DA:51,11
DA:52,11
DA:53,11
DA:54,2
DA:55,2
DA:56,2
DA:57,2
DA:58,2
DA:59,2
DA:61,9
DA:63,11
DA:73,1
DA:74,1
DA:75,1
DA:76,1
DA:79,1
DA:80,1
DA:81,1
DA:82,1
DA:85,1
DA:86,1
DA:87,1
DA:88,1
DA:89,0
DA:90,1
DA:93,1
DA:94,1
DA:95,1
DA:96,1
DA:98,1
DA:99,1
DA:100,1
DA:101,0
DA:102,1
DA:105,1
DA:106,1
DA:107,1
DA:108,1
DA:111,1
DA:112,1
DA:113,1
DA:114,1
BRF:0
BRH:0
LF:62
LH:59
end_of_record
SF:/media/topleft/garden/hcaptcha-rs/hcaptcha/src/domain/hcaptcha_secret_ext.rs
FN:12,_RNvXNtNtCs8FL3BOWiKQp_8hcaptcha6domain19hcaptcha_secret_extNtB2_14HcaptchaSecretNtNtCs5cYH0lLSdLc_4core3fmt7Display3fmt
FN:23,_RNvMs_NtNtCs8FL3BOWiKQp_8hcaptcha6domain19hcaptcha_secret_extNtB4_14HcaptchaSecret5parse
FN:30,_RNvMs_NtNtCs8FL3BOWiKQp_8hcaptcha6domain19hcaptcha_secret_extNtB4_14HcaptchaSecret8parse_v1
FN:49,_RNvMs_NtNtCs8FL3BOWiKQp_8hcaptcha6domain19hcaptcha_secret_extNtB4_14HcaptchaSecret8parse_v2
FN:74,_RNvNtNtCs8FL3BOWiKQp_8hcaptcha6domain19hcaptcha_secret_ext13is_hex_string
FN:88,_RNvMs0_NtNtCs8FL3BOWiKQp_8hcaptcha6domain19hcaptcha_secret_extNtB5_14SecretVersions5parse
FN:119,_RNvNtNtNtCs8FL3BOWiKQp_8hcaptcha6domain19hcaptcha_secret_ext5testss_36whitespace_only_secrets_are_rejected
FN:124,_RNvNtNtNtCs8FL3BOWiKQp_8hcaptcha6domain19hcaptcha_secret_ext5testss_24empty_string_is_rejected
FN:129,_RNvNtNtNtCs8FL3BOWiKQp_8hcaptcha6domain19hcaptcha_secret_ext5testss_41secret_longer_than_secret_len_is_rejected
FN:136,_RNvNtNtNtCs8FL3BOWiKQp_8hcaptcha6domain19hcaptcha_secret_ext5testss_42secret_shorter_than_secret_len_is_rejected
FN:143,_RNvNtNtNtCs8FL3BOWiKQp_8hcaptcha6domain19hcaptcha_secret_ext5testss_49secret_that_is_not_a_valid_hex_string_is_rejected
FN:149,_RNvNtNtNtCs8FL3BOWiKQp_8hcaptcha6domain19hcaptcha_secret_ext5testss_39error_set_contains_missing_secret_error
FN:157,_RNvNtNtNtCs8FL3BOWiKQp_8hcaptcha6domain19hcaptcha_secret_ext5testss_39error_set_contains_invalid_secret_error
FN:166,_RNvNtNtNtCs8FL3BOWiKQp_8hcaptcha6domain19hcaptcha_secret_ext5testss_27test_v1_secret_key_is_valid
FN:173,_RNvNtNtNtCs8FL3BOWiKQp_8hcaptcha6domain19hcaptcha_secret_ext5testss_27test_v2_secret_key_is_valid
FN:179,_RNvNtNtNtCs8FL3BOWiKQp_8hcaptcha6domain19hcaptcha_secret_ext5testss_26test_parse_v2_wrong_length
FNDA:4,_RNvXNtNtCs8FL3BOWiKQp_8hcaptcha6domain19hcaptcha_secret_extNtB2_14HcaptchaSecretNtNtCs5cYH0lLSdLc_4core3fmt7Display3fmt
FNDA:14,_RNvMs_NtNtCs8FL3BOWiKQp_8hcaptcha6domain19hcaptcha_secret_extNtB4_14HcaptchaSecret5parse
FNDA:7,_RNvMs_NtNtCs8FL3BOWiKQp_8hcaptcha6domain19hcaptcha_secret_extNtB4_14HcaptchaSecret8parse_v1
FNDA:2,_RNvMs_NtNtCs8FL3BOWiKQp_8hcaptcha6domain19hcaptcha_secret_extNtB4_14HcaptchaSecret8parse_v2
FNDA:9,_RNvNtNtCs8FL3BOWiKQp_8hcaptcha6domain19hcaptcha_secret_ext13is_hex_string
FNDA:14,_RNvMs0_NtNtCs8FL3BOWiKQp_8hcaptcha6domain19hcaptcha_secret_extNtB5_14SecretVersions5parse
FNDA:1,_RNvNtNtNtCs8FL3BOWiKQp_8hcaptcha6domain19hcaptcha_secret_ext5testss_36whitespace_only_secrets_are_rejected
FNDA:1,_RNvNtNtNtCs8FL3BOWiKQp_8hcaptcha6domain19hcaptcha_secret_ext5testss_24empty_string_is_rejected
FNDA:1,_RNvNtNtNtCs8FL3BOWiKQp_8hcaptcha6domain19hcaptcha_secret_ext5testss_41secret_longer_than_secret_len_is_rejected
FNDA:1,_RNvNtNtNtCs8FL3BOWiKQp_8hcaptcha6domain19hcaptcha_secret_ext5testss_42secret_shorter_than_secret_len_is_rejected
FNDA:1,_RNvNtNtNtCs8FL3BOWiKQp_8hcaptcha6domain19hcaptcha_secret_ext5testss_49secret_that_is_not_a_valid_hex_string_is_rejected
FNDA:1,_RNvNtNtNtCs8FL3BOWiKQp_8hcaptcha6domain19hcaptcha_secret_ext5testss_39error_set_contains_missing_secret_error
FNDA:1,_RNvNtNtNtCs8FL3BOWiKQp_8hcaptcha6domain19hcaptcha_secret_ext5testss_39error_set_contains_invalid_secret_error
FNDA:1,_RNvNtNtNtCs8FL3BOWiKQp_8hcaptcha6domain19hcaptcha_secret_ext5testss_27test_v1_secret_key_is_valid
FNDA:1,_RNvNtNtNtCs8FL3BOWiKQp_8hcaptcha6domain19hcaptcha_secret_ext5testss_27test_v2_secret_key_is_valid
FNDA:1,_RNvNtNtNtCs8FL3BOWiKQp_8hcaptcha6domain19hcaptcha_secret_ext5testss_26test_parse_v2_wrong_length
FNF:16
FNH:16
DA:12,4
DA:13,4
DA:14,4
DA:23,14
DA:24,14
DA:25,7
DA:26,1
DA:28,14
DA:30,7
DA:31,7
DA:32,7
DA:33,7
DA:34,7
DA:35,1
DA:36,6
DA:37,7
DA:38,1
DA:39,6
DA:40,7
DA:41,6
DA:45,1
DA:47,7
DA:49,2
DA:50,2
DA:51,2
DA:52,2
DA:53,2
DA:54,2
DA:55,1
DA:56,1
DA:57,2
DA:58,1
DA:59,1
DA:60,2
DA:61,1
DA:65,1
DA:67,2
DA:74,9
DA:75,9
DA:76,9
DA:77,9
DA:78,9
DA:79,9
DA:88,14
DA:89,14
DA:90,14
DA:91,14
DA:92,3
DA:93,3
DA:94,3
DA:95,3
DA:96,11
DA:97,11
DA:98,11
DA:99,11
DA:100,4
DA:102,3
DA:103,3
DA:104,3
DA:105,3
DA:108,14
DA:119,1
DA:120,1
DA:121,1
DA:122,1
DA:124,1
DA:125,1
DA:126,1
DA:127,1
DA:129,1
DA:130,1
DA:131,1
DA:132,1
DA:136,1
DA:137,1
DA:138,1
DA:139,1
DA:143,1
DA:144,1
DA:145,1
DA:146,1
DA:149,1
DA:150,1
DA:151,1
DA:152,1
DA:153,0
DA:154,1
DA:157,1
DA:158,1
DA:159,1
DA:160,1
DA:161,1
DA:162,0
DA:163,1
DA:166,1
DA:167,1
DA:168,1
DA:169,1
DA:173,1
DA:174,1
DA:175,1
DA:176,1
DA:179,1
DA:180,1
DA:181,1
DA:182,1
DA:183,1
DA:184,1
DA:185,0
DA:186,1
BRF:0
BRH:0
LF:110
LH:107
end_of_record
SF:/media/topleft/garden/hcaptcha-rs/hcaptcha/src/domain/hcaptcha_sitekey.rs
FN:7,_RNvXNvXNvNtNtCs8FL3BOWiKQp_8hcaptcha6domain16hcaptcha_sitekey1__NtB7_15HcaptchaSitekeyNtNtCsg9y1yQVR4yU_5serde2de11Deserialize11deserializeNtB2_9___VisitorNtB1o_7Visitor9expecting
FN:7,_RINvXNvXNvNtNtCs8FL3BOWiKQp_8hcaptcha6domain16hcaptcha_sitekey1__NtB8_15HcaptchaSitekeyNtNtCsg9y1yQVR4yU_5serde2de11Deserialize11deserializeNtB3_9___VisitorNtB1p_7Visitor20visit_newtype_structpEBc_
FN:7,_RINvXNvXNvNtNtCs8FL3BOWiKQp_8hcaptcha6domain16hcaptcha_sitekey1__NtB8_15HcaptchaSitekeyNtNtCsg9y1yQVR4yU_5serde2de11Deserialize11deserializeNtB3_9___VisitorNtB1p_7Visitor9visit_seqpEBc_
FN:74,_RNvNtNtNtCs8FL3BOWiKQp_8hcaptcha6domain16hcaptcha_sitekey5testss_37whitespace_only_sitekeys_are_rejected
FN:80,_RNvNtNtNtCs8FL3BOWiKQp_8hcaptcha6domain16hcaptcha_sitekey5testss_24empty_string_is_rejected
FN:86,_RNvNtNtNtCs8FL3BOWiKQp_8hcaptcha6domain16hcaptcha_sitekey5testss_40error_set_contains_missing_sitekey_error
FN:94,_RNvNtNtNtCs8FL3BOWiKQp_8hcaptcha6domain16hcaptcha_sitekey5testss_40error_set_contains_invalid_sitekey_error
FN:105,_RNvNtNtNtCs8FL3BOWiKQp_8hcaptcha6domain16hcaptcha_sitekey5testss_26valid_sitekey_key_is_valid
FN:11,_RNvXNtNtCs8FL3BOWiKQp_8hcaptcha6domain16hcaptcha_sitekeyNtB2_15HcaptchaSitekeyNtNtCs5cYH0lLSdLc_4core3fmt7Display3fmt
FN:21,_RNvMs_NtNtCs8FL3BOWiKQp_8hcaptcha6domain16hcaptcha_sitekeyNtB4_15HcaptchaSitekey5parse
FN:33,_RNvNtNtCs8FL3BOWiKQp_8hcaptcha6domain16hcaptcha_sitekey13empty_sitekey
FN:50,_RNvNtNtCs8FL3BOWiKQp_8hcaptcha6domain16hcaptcha_sitekey15invalid_sitekey
FNDA:0,_RNvXNvXNvNtNtCs8FL3BOWiKQp_8hcaptcha6domain16hcaptcha_sitekey1__NtB7_15HcaptchaSitekeyNtNtCsg9y1yQVR4yU_5serde2de11Deserialize11deserializeNtB2_9___VisitorNtB1o_7Visitor9expecting
FNDA:0,_RINvXNvXNvNtNtCs8FL3BOWiKQp_8hcaptcha6domain16hcaptcha_sitekey1__NtB8_15HcaptchaSitekeyNtNtCsg9y1yQVR4yU_5serde2de11Deserialize11deserializeNtB3_9___VisitorNtB1p_7Visitor20visit_newtype_structpEBc_
FNDA:0,_RINvXNvXNvNtNtCs8FL3BOWiKQp_8hcaptcha6domain16hcaptcha_sitekey1__NtB8_15HcaptchaSitekeyNtNtCsg9y1yQVR4yU_5serde2de11Deserialize11deserializeNtB3_9___VisitorNtB1p_7Visitor9visit_seqpEBc_
FNDA:1,_RNvNtNtNtCs8FL3BOWiKQp_8hcaptcha6domain16hcaptcha_sitekey5testss_37whitespace_only_sitekeys_are_rejected
FNDA:1,_RNvNtNtNtCs8FL3BOWiKQp_8hcaptcha6domain16hcaptcha_sitekey5testss_24empty_string_is_rejected
FNDA:1,_RNvNtNtNtCs8FL3BOWiKQp_8hcaptcha6domain16hcaptcha_sitekey5testss_40error_set_contains_missing_sitekey_error
FNDA:1,_RNvNtNtNtCs8FL3BOWiKQp_8hcaptcha6domain16hcaptcha_sitekey5testss_40error_set_contains_invalid_sitekey_error
FNDA:1,_RNvNtNtNtCs8FL3BOWiKQp_8hcaptcha6domain16hcaptcha_sitekey5testss_26valid_sitekey_key_is_valid
FNDA:1,_RNvXNtNtCs8FL3BOWiKQp_8hcaptcha6domain16hcaptcha_sitekeyNtB2_15HcaptchaSitekeyNtNtCs5cYH0lLSdLc_4core3fmt7Display3fmt
FNDA:13,_RNvMs_NtNtCs8FL3BOWiKQp_8hcaptcha6domain16hcaptcha_sitekeyNtB4_15HcaptchaSitekey5parse
FNDA:13,_RNvNtNtCs8FL3BOWiKQp_8hcaptcha6domain16hcaptcha_sitekey13empty_sitekey
FNDA:10,_RNvNtNtCs8FL3BOWiKQp_8hcaptcha6domain16hcaptcha_sitekey15invalid_sitekey
FNF:10
FNH:9
DA:7,0
DA:11,1
DA:12,1
DA:13,1
DA:21,13
DA:22,13
DA:23,10
DA:25,8
DA:26,13
DA:33,13
DA:34,13
DA:35,3
DA:36,3
DA:37,3
DA:38,3
DA:39,3
DA:40,3
DA:42,10
DA:44,13
DA:50,10
DA:51,10
DA:52,2
DA:53,2
DA:54,2
DA:55,2
DA:56,2
DA:57,2
DA:59,8
DA:61,10
DA:74,1
DA:75,1
DA:76,1
DA:77,1
DA:80,1
DA:81,1
DA:82,1
DA:83,1
DA:86,1
DA:87,1
DA:88,1
DA:89,1
DA:90,0
DA:91,1
DA:94,1
DA:95,1
DA:96,1
DA:97,1
DA:99,1
DA:100,1
DA:101,0
DA:102,1
DA:105,1
DA:106,1
DA:108,1
DA:109,1
BRF:0
BRH:0
LF:55
LH:52
end_of_record
SF:/media/topleft/garden/hcaptcha-rs/hcaptcha/src/hcaptcha_captcha.rs
FN:439,_RNvNtNtCs8FL3BOWiKQp_8hcaptcha16hcaptcha_captcha5tests15random_response
FN:448,_RNvNtNtCs8FL3BOWiKQp_8hcaptcha16hcaptcha_captcha5tests13dummy_captcha
FN:543,_RNvNtNtCs8FL3BOWiKQp_8hcaptcha16hcaptcha_captcha5tests11get_captcha
FN:458,_RNvNtNtCs8FL3BOWiKQp_8hcaptcha16hcaptcha_captcha5testss_33response_cannot_be_empty_or_blank
FN:466,_RNvNtNtCs8FL3BOWiKQp_8hcaptcha16hcaptcha_captcha5testss_43fail_if_remoteip_not_valid_v4_or_v6_address
FN:476,_RNvNtNtCs8FL3BOWiKQp_8hcaptcha16hcaptcha_captcha5testss_20remoteip_is_optional
FN:486,_RNvNtNtCs8FL3BOWiKQp_8hcaptcha16hcaptcha_captcha5testss_25valid_user_id_is_accepted
FN:493,_RNvNtNtCs8FL3BOWiKQp_8hcaptcha16hcaptcha_captcha5testss_30fail_if_sitekey_not_valid_uuid
FN:504,_RNvNtNtCs8FL3BOWiKQp_8hcaptcha16hcaptcha_captcha5testss_19sitekey_is_optional
FN:514,_RNvNtNtCs8FL3BOWiKQp_8hcaptcha16hcaptcha_captcha5testss_25valid_sitekey_is_accepted
FN:524,_RNvNtNtCs8FL3BOWiKQp_8hcaptcha16hcaptcha_captcha5testss_44update_sitekey_with_empty_string_yields_none
FN:534,_RNvNtNtCs8FL3BOWiKQp_8hcaptcha16hcaptcha_captcha5testss_45update_remoteip_with_empty_string_yields_none
FN:556,_RNvNtNtCs8FL3BOWiKQp_8hcaptcha16hcaptcha_captcha5testss_44test_hcaptcha_captcha_default_initialization
FN:442,_RNCNvNtNtCs8FL3BOWiKQp_8hcaptcha16hcaptcha_captcha5tests15random_response0B7_
FN:31,_RNvXNvXNvNtCs8FL3BOWiKQp_8hcaptcha16hcaptcha_captchas_1__NtB7_15HcaptchaCaptchaNtNtCsg9y1yQVR4yU_5serde2de11Deserialize11deserializeNtB2_14___FieldVisitorNtB1h_7Visitor9expecting
FN:31,_RINvXNvXNvNtCs8FL3BOWiKQp_8hcaptcha16hcaptcha_captchas_1__NtB8_15HcaptchaCaptchaNtNtCsg9y1yQVR4yU_5serde2de11Deserialize11deserializeNtB3_14___FieldVisitorNtB1i_7Visitor9visit_u64pEBa_
FN:31,_RINvXNvXNvNtCs8FL3BOWiKQp_8hcaptcha16hcaptcha_captchas_1__NtB8_15HcaptchaCaptchaNtNtCsg9y1yQVR4yU_5serde2de11Deserialize11deserializeNtB3_14___FieldVisitorNtB1i_7Visitor9visit_strpEBa_
FN:31,_RINvXNvXNvNtCs8FL3BOWiKQp_8hcaptcha16hcaptcha_captchas_1__NtB8_15HcaptchaCaptchaNtNtCsg9y1yQVR4yU_5serde2de11Deserialize11deserializeNtB3_14___FieldVisitorNtB1i_7Visitor11visit_bytespEBa_
FN:31,_RINvXs_NvXNvNtCs8FL3BOWiKQp_8hcaptcha16hcaptcha_captchas_1__NtBa_15HcaptchaCaptchaNtNtCsg9y1yQVR4yU_5serde2de11Deserialize11deserializeNtB5_7___FieldB1i_11deserializepEBc_
FN:31,_RNvXs0_NvXNvNtCs8FL3BOWiKQp_8hcaptcha16hcaptcha_captchas_1__NtBa_15HcaptchaCaptchaNtNtCsg9y1yQVR4yU_5serde2de11Deserialize11deserializeNtB5_9___VisitorNtB1k_7Visitor9expecting
FN:31,_RINvXs0_NvXNvNtCs8FL3BOWiKQp_8hcaptcha16hcaptcha_captchas_1__NtBb_15HcaptchaCaptchaNtNtCsg9y1yQVR4yU_5serde2de11Deserialize11deserializeNtB6_9___VisitorNtB1l_7Visitor9visit_seqpEBd_
FN:31,_RINvXs0_NvXNvNtCs8FL3BOWiKQp_8hcaptcha16hcaptcha_captchas_1__NtBb_15HcaptchaCaptchaNtNtCsg9y1yQVR4yU_5serde2de11Deserialize11deserializeNtB6_9___VisitorNtB1l_7Visitor9visit_mappEBd_
FN:99,_RNvMNtCs8FL3BOWiKQp_8hcaptcha16hcaptcha_captchaNtB2_15HcaptchaCaptcha3new
FN:173,_RNvMNtCs8FL3BOWiKQp_8hcaptcha16hcaptcha_captchaNtB2_15HcaptchaCaptcha12set_remoteip
FN:249,_RNvMNtCs8FL3BOWiKQp_8hcaptcha16hcaptcha_captchaNtB2_15HcaptchaCaptcha11set_sitekey
FN:309,_RNvMNtCs8FL3BOWiKQp_8hcaptcha16hcaptcha_captchaNtB2_15HcaptchaCaptcha8response
FN:367,_RNvMNtCs8FL3BOWiKQp_8hcaptcha16hcaptcha_captchaNtB2_15HcaptchaCaptcha8remoteip
FN:425,_RNvMNtCs8FL3BOWiKQp_8hcaptcha16hcaptcha_captchaNtB2_15HcaptchaCaptcha7sitekey
FNDA:3,_RNvNtNtCs8FL3BOWiKQp_8hcaptcha16hcaptcha_captcha5tests15random_response
FNDA:2,_RNvNtNtCs8FL3BOWiKQp_8hcaptcha16hcaptcha_captcha5tests13dummy_captcha
FNDA:1,_RNvNtNtCs8FL3BOWiKQp_8hcaptcha16hcaptcha_captcha5tests11get_captcha
FNDA:1,_RNvNtNtCs8FL3BOWiKQp_8hcaptcha16hcaptcha_captcha5testss_33response_cannot_be_empty_or_blank
FNDA:1,_RNvNtNtCs8FL3BOWiKQp_8hcaptcha16hcaptcha_captcha5testss_43fail_if_remoteip_not_valid_v4_or_v6_address
FNDA:1,_RNvNtNtCs8FL3BOWiKQp_8hcaptcha16hcaptcha_captcha5testss_20remoteip_is_optional
FNDA:1,_RNvNtNtCs8FL3BOWiKQp_8hcaptcha16hcaptcha_captcha5testss_25valid_user_id_is_accepted
FNDA:1,_RNvNtNtCs8FL3BOWiKQp_8hcaptcha16hcaptcha_captcha5testss_30fail_if_sitekey_not_valid_uuid
FNDA:1,_RNvNtNtCs8FL3BOWiKQp_8hcaptcha16hcaptcha_captcha5testss_19sitekey_is_optional
FNDA:1,_RNvNtNtCs8FL3BOWiKQp_8hcaptcha16hcaptcha_captcha5testss_25valid_sitekey_is_accepted
FNDA:1,_RNvNtNtCs8FL3BOWiKQp_8hcaptcha16hcaptcha_captcha5testss_44update_sitekey_with_empty_string_yields_none
FNDA:1,_RNvNtNtCs8FL3BOWiKQp_8hcaptcha16hcaptcha_captcha5testss_45update_remoteip_with_empty_string_yields_none
FNDA:1,_RNvNtNtCs8FL3BOWiKQp_8hcaptcha16hcaptcha_captcha5testss_44test_hcaptcha_captcha_default_initialization
FNDA:300,_RNCNvNtNtCs8FL3BOWiKQp_8hcaptcha16hcaptcha_captcha5tests15random_response0B7_
FNDA:0,_RNvXNvXNvNtCs8FL3BOWiKQp_8hcaptcha16hcaptcha_captchas_1__NtB7_15HcaptchaCaptchaNtNtCsg9y1yQVR4yU_5serde2de11Deserialize11deserializeNtB2_14___FieldVisitorNtB1h_7Visitor9expecting
FNDA:0,_RINvXNvXNvNtCs8FL3BOWiKQp_8hcaptcha16hcaptcha_captchas_1__NtB8_15HcaptchaCaptchaNtNtCsg9y1yQVR4yU_5serde2de11Deserialize11deserializeNtB3_14___FieldVisitorNtB1i_7Visitor9visit_u64pEBa_
FNDA:0,_RINvXNvXNvNtCs8FL3BOWiKQp_8hcaptcha16hcaptcha_captchas_1__NtB8_15HcaptchaCaptchaNtNtCsg9y1yQVR4yU_5serde2de11Deserialize11deserializeNtB3_14___FieldVisitorNtB1i_7Visitor9visit_strpEBa_
FNDA:0,_RINvXNvXNvNtCs8FL3BOWiKQp_8hcaptcha16hcaptcha_captchas_1__NtB8_15HcaptchaCaptchaNtNtCsg9y1yQVR4yU_5serde2de11Deserialize11deserializeNtB3_14___FieldVisitorNtB1i_7Visitor11visit_bytespEBa_
FNDA:0,_RINvXs_NvXNvNtCs8FL3BOWiKQp_8hcaptcha16hcaptcha_captchas_1__NtBa_15HcaptchaCaptchaNtNtCsg9y1yQVR4yU_5serde2de11Deserialize11deserializeNtB5_7___FieldB1i_11deserializepEBc_
FNDA:0,_RNvXs0_NvXNvNtCs8FL3BOWiKQp_8hcaptcha16hcaptcha_captchas_1__NtBa_15HcaptchaCaptchaNtNtCsg9y1yQVR4yU_5serde2de11Deserialize11deserializeNtB5_9___VisitorNtB1k_7Visitor9expecting
FNDA:0,_RINvXs0_NvXNvNtCs8FL3BOWiKQp_8hcaptcha16hcaptcha_captchas_1__NtBb_15HcaptchaCaptchaNtNtCsg9y1yQVR4yU_5serde2de11Deserialize11deserializeNtB6_9___VisitorNtB1l_7Visitor9visit_seqpEBd_
FNDA:0,_RINvXs0_NvXNvNtCs8FL3BOWiKQp_8hcaptcha16hcaptcha_captchas_1__NtBb_15HcaptchaCaptchaNtNtCsg9y1yQVR4yU_5serde2de11Deserialize11deserializeNtB6_9___VisitorNtB1l_7Visitor9visit_mappEBd_
FNDA:16,_RNvMNtCs8FL3BOWiKQp_8hcaptcha16hcaptcha_captchaNtB2_15HcaptchaCaptcha3new
FNDA:9,_RNvMNtCs8FL3BOWiKQp_8hcaptcha16hcaptcha_captchaNtB2_15HcaptchaCaptcha12set_remoteip
FNDA:9,_RNvMNtCs8FL3BOWiKQp_8hcaptcha16hcaptcha_captchaNtB2_15HcaptchaCaptcha11set_sitekey
FNDA:1,_RNvMNtCs8FL3BOWiKQp_8hcaptcha16hcaptcha_captchaNtB2_15HcaptchaCaptcha8response
FNDA:2,_RNvMNtCs8FL3BOWiKQp_8hcaptcha16hcaptcha_captchaNtB2_15HcaptchaCaptcha8remoteip
FNDA:3,_RNvMNtCs8FL3BOWiKQp_8hcaptcha16hcaptcha_captchaNtB2_15HcaptchaCaptcha7sitekey
FNF:21
FNH:20
DA:31,0
DA:99,16
DA:100,16
DA:101,16
DA:102,14
DA:103,14
DA:105,16
DA:173,9
DA:174,9
DA:175,1
DA:176,1
DA:177,8
DA:180,8
DA:181,9
DA:249,9
DA:250,9
DA:251,1
DA:252,1
DA:253,8
DA:256,8
DA:257,9
DA:309,1
DA:310,1
DA:311,1
DA:367,2
DA:368,2
DA:369,2
DA:425,3
DA:426,3
DA:427,3
DA:439,3
DA:440,3
DA:441,3
DA:442,300
DA:443,3
DA:444,3
DA:445,3
DA:446,3
DA:448,2
DA:449,2
DA:450,2
DA:451,2
DA:452,2
DA:453,2
DA:454,2
DA:455,2
DA:458,1
DA:459,1
DA:460,1
DA:461,1
DA:462,1
DA:463,1
DA:466,1
DA:467,1
DA:468,1
DA:469,1
DA:470,1
DA:471,1
DA:472,1
DA:473,0
DA:474,1
DA:476,1
DA:477,1
DA:478,1
DA:479,1
DA:480,1
DA:482,1
DA:483,1
DA:486,1
DA:487,1
DA:488,1
DA:489,1
DA:490,1
DA:493,1
DA:494,1
DA:495,1
DA:496,1
DA:498,1
DA:499,1
DA:500,1
DA:501,0
DA:502,1
DA:504,1
DA:505,1
DA:506,1
DA:507,1
DA:508,1
DA:510,1
DA:511,1
DA:514,1
DA:515,1
DA:516,1
DA:517,1
DA:518,1
DA:520,1
DA:521,1
DA:524,1
DA:525,1
DA:527,1
DA:528,1
DA:530,1
DA:531,1
DA:534,1
DA:535,1
DA:537,1
DA:538,1
DA:540,1
DA:541,1
DA:543,1
DA:544,1
DA:545,1
DA:546,1
DA:547,1
DA:548,1
DA:549,1
DA:550,1
DA:551,1
DA:552,1
DA:553,1
DA:556,1
DA:557,1
DA:558,1
DA:559,1
DA:560,1
BRF:0
BRH:0
LF:125
LH:122
end_of_record
SF:/media/topleft/garden/hcaptcha-rs/hcaptcha/src/hcaptcha_client.rs
FN:283,_RNCNvNtNtCs8FL3BOWiKQp_8hcaptcha15hcaptcha_client5tests13random_string0B7_
FN:291,_RNCNvNtNtCs8FL3BOWiKQp_8hcaptcha15hcaptcha_client5testss_13hcaptcha_mock0B7_
FN:331,_RNCNvNtNtCs8FL3BOWiKQp_8hcaptcha15hcaptcha_client5testss_27hcaptcha_mock_with_remoteip0B7_
FN:378,_RNCNvNtNtCs8FL3BOWiKQp_8hcaptcha15hcaptcha_client5testss_26hcaptcha_mock_with_sitekey0B7_
FN:238,_RNCNvMs_NtCs8FL3BOWiKQp_8hcaptcha15hcaptcha_clientNtB6_14HcaptchaClient22verify_client_response0B8_
FN:86,_RNvXNtCs8FL3BOWiKQp_8hcaptcha15hcaptcha_clientNtB2_14HcaptchaClientNtNtCs5cYH0lLSdLc_4core7default7Default7default
FN:108,_RNvMs_NtCs8FL3BOWiKQp_8hcaptcha15hcaptcha_clientNtB4_14HcaptchaClient3new
FN:128,_RNvMs_NtCs8FL3BOWiKQp_8hcaptcha15hcaptcha_clientNtB4_14HcaptchaClient8new_with
FN:153,_RNvMs_NtCs8FL3BOWiKQp_8hcaptcha15hcaptcha_clientNtB4_14HcaptchaClient7set_url
FN:235,_RNvMs_NtCs8FL3BOWiKQp_8hcaptcha15hcaptcha_clientNtB4_14HcaptchaClient22verify_client_response
FN:280,_RNvNtNtCs8FL3BOWiKQp_8hcaptcha15hcaptcha_client5tests13random_string
FN:291,_RNvNtNtCs8FL3BOWiKQp_8hcaptcha15hcaptcha_client5testss_13hcaptcha_mock
FN:331,_RNvNtNtCs8FL3BOWiKQp_8hcaptcha15hcaptcha_client5testss_27hcaptcha_mock_with_remoteip
FN:378,_RNvNtNtCs8FL3BOWiKQp_8hcaptcha15hcaptcha_client5testss_26hcaptcha_mock_with_sitekey
FN:424,_RNvNtNtCs8FL3BOWiKQp_8hcaptcha15hcaptcha_client5testss_21test_success_response
FN:444,_RNvNtNtCs8FL3BOWiKQp_8hcaptcha15hcaptcha_client5testss_19test_error_response
FN:465,_RNvNtNtCs8FL3BOWiKQp_8hcaptcha15hcaptcha_client5testss_43test_hcaptcha_client_default_initialization
FN:471,_RNvNtNtCs8FL3BOWiKQp_8hcaptcha15hcaptcha_client5testss_38test_hcaptcha_client_default_calls_new
FN:482,_RNvNtNtCs8FL3BOWiKQp_8hcaptcha15hcaptcha_client5testss_27test_set_url_with_valid_url
FN:490,_RNvNtNtCs8FL3BOWiKQp_8hcaptcha15hcaptcha_client5testss_29test_set_url_with_invalid_url
FN:501,_RNvNtNtCs8FL3BOWiKQp_8hcaptcha15hcaptcha_client5testss_30test_set_url_with_empty_string
FNDA:360,_RNCNvNtNtCs8FL3BOWiKQp_8hcaptcha15hcaptcha_client5tests13random_string0B7_
FNDA:1,_RNCNvNtNtCs8FL3BOWiKQp_8hcaptcha15hcaptcha_client5testss_13hcaptcha_mock0B7_
FNDA:1,_RNCNvNtNtCs8FL3BOWiKQp_8hcaptcha15hcaptcha_client5testss_27hcaptcha_mock_with_remoteip0B7_
FNDA:1,_RNCNvNtNtCs8FL3BOWiKQp_8hcaptcha15hcaptcha_client5testss_26hcaptcha_mock_with_sitekey0B7_
FNDA:3,_RNCNvMs_NtCs8FL3BOWiKQp_8hcaptcha15hcaptcha_clientNtB6_14HcaptchaClient22verify_client_response0B8_
FNDA:5,_RNvXNtCs8FL3BOWiKQp_8hcaptcha15hcaptcha_clientNtB2_14HcaptchaClientNtNtCs5cYH0lLSdLc_4core7default7Default7default
FNDA:5,_RNvMs_NtCs8FL3BOWiKQp_8hcaptcha15hcaptcha_clientNtB4_14HcaptchaClient3new
FNDA:3,_RNvMs_NtCs8FL3BOWiKQp_8hcaptcha15hcaptcha_clientNtB4_14HcaptchaClient8new_with
FNDA:3,_RNvMs_NtCs8FL3BOWiKQp_8hcaptcha15hcaptcha_clientNtB4_14HcaptchaClient7set_url
FNDA:3,_RNvMs_NtCs8FL3BOWiKQp_8hcaptcha15hcaptcha_clientNtB4_14HcaptchaClient22verify_client_response
FNDA:6,_RNvNtNtCs8FL3BOWiKQp_8hcaptcha15hcaptcha_client5tests13random_string
FNDA:1,_RNvNtNtCs8FL3BOWiKQp_8hcaptcha15hcaptcha_client5testss_13hcaptcha_mock
FNDA:1,_RNvNtNtCs8FL3BOWiKQp_8hcaptcha15hcaptcha_client5testss_27hcaptcha_mock_with_remoteip
FNDA:1,_RNvNtNtCs8FL3BOWiKQp_8hcaptcha15hcaptcha_client5testss_26hcaptcha_mock_with_sitekey
FNDA:1,_RNvNtNtCs8FL3BOWiKQp_8hcaptcha15hcaptcha_client5testss_21test_success_response
FNDA:1,_RNvNtNtCs8FL3BOWiKQp_8hcaptcha15hcaptcha_client5testss_19test_error_response
FNDA:1,_RNvNtNtCs8FL3BOWiKQp_8hcaptcha15hcaptcha_client5testss_43test_hcaptcha_client_default_initialization
FNDA:1,_RNvNtNtCs8FL3BOWiKQp_8hcaptcha15hcaptcha_client5testss_38test_hcaptcha_client_default_calls_new
FNDA:1,_RNvNtNtCs8FL3BOWiKQp_8hcaptcha15hcaptcha_client5testss_27test_set_url_with_valid_url
FNDA:1,_RNvNtNtCs8FL3BOWiKQp_8hcaptcha15hcaptcha_client5testss_29test_set_url_with_invalid_url
FNDA:1,_RNvNtNtCs8FL3BOWiKQp_8hcaptcha15hcaptcha_client5testss_30test_set_url_with_empty_string
FNF:21
FNH:21
DA:86,5
DA:87,5
DA:88,5
DA:108,5
DA:109,5
DA:110,5
DA:111,5
DA:112,5
DA:113,5
DA:128,3
DA:129,3
DA:130,3
DA:131,3
DA:133,3
DA:153,3
DA:154,3
DA:155,1
DA:156,3
DA:235,3
DA:236,3
DA:237,3
DA:238,3
DA:239,3
DA:245,3
DA:246,3
DA:247,3
DA:248,3
DA:249,3
DA:250,9
DA:251,3
DA:252,0
DA:255,3
DA:256,3
DA:257,3
DA:280,6
DA:281,6
DA:282,6
DA:283,360
DA:284,6
DA:285,6
DA:286,6
DA:287,6
DA:291,1
DA:292,1
DA:293,1
DA:294,1
DA:295,1
DA:296,1
DA:297,1
DA:298,1
DA:299,1
DA:300,1
DA:301,1
DA:302,1
DA:303,1
DA:304,1
DA:305,1
DA:306,1
DA:307,1
DA:308,1
DA:309,1
DA:310,1
DA:311,1
DA:312,1
DA:313,1
DA:314,1
DA:315,1
DA:316,1
DA:317,1
DA:318,3
DA:319,1
DA:320,1
DA:321,1
DA:322,1
DA:323,1
DA:324,1
DA:325,1
DA:326,1
DA:327,1
DA:331,1
DA:332,1
DA:333,1
DA:334,1
DA:335,1
DA:336,1
DA:337,1
DA:338,1
DA:339,1
DA:340,1
DA:341,1
DA:342,1
DA:343,1
DA:344,1
DA:345,1
DA:346,1
DA:347,1
DA:348,1
DA:349,1
DA:350,1
DA:351,1
DA:352,1
DA:353,1
DA:354,1
DA:355,1
DA:356,1
DA:357,1
DA:358,1
DA:359,1
DA:360,1
DA:361,1
DA:362,1
DA:363,1
DA:364,1
DA:365,3
DA:366,1
DA:367,1
DA:368,1
DA:369,1
DA:370,1
DA:371,1
DA:372,1
DA:373,1
DA:374,1
DA:378,1
DA:379,1
DA:380,1
DA:381,1
DA:382,1
DA:383,1
DA:384,1
DA:385,1
DA:386,1
DA:387,1
DA:388,1
DA:389,1
DA:390,1
DA:391,1
DA:392,1
DA:393,1
DA:394,1
DA:395,1
DA:396,1
DA:397,1
DA:398,1
DA:399,1
DA:400,1
DA:401,1
DA:402,1
DA:403,1
DA:404,1
DA:405,1
DA:406,1
DA:407,1
DA:408,1
DA:409,1
DA:410,1
DA:411,1
DA:412,3
DA:413,1
DA:414,1
DA:415,1
DA:416,1
DA:417,1
DA:418,1
DA:419,1
DA:420,1
DA:421,1
DA:424,1
DA:425,1
DA:426,1
DA:427,1
DA:428,1
DA:429,1
DA:430,1
DA:431,1
DA:432,1
DA:433,1
DA:434,1
DA:435,1
DA:436,1
DA:437,1
DA:438,1
DA:439,1
DA:440,1
DA:441,1
DA:444,1
DA:445,1
DA:446,1
DA:447,1
DA:448,1
DA:449,1
DA:450,1
DA:451,1
DA:452,1
DA:453,1
DA:454,1
DA:455,1
DA:456,1
DA:457,1
DA:458,1
DA:459,1
DA:460,1
DA:461,0
DA:462,1
DA:465,1
DA:466,1
DA:467,1
DA:468,1
DA:471,1
DA:472,1
DA:473,1
DA:474,1
DA:475,1
DA:476,1
DA:477,1
DA:478,1
DA:479,1
DA:482,1
DA:483,1
DA:484,1
DA:485,1
DA:486,1
DA:487,1
DA:490,1
DA:491,1
DA:492,1
DA:493,1
DA:494,1
DA:495,1
DA:496,0
DA:498,1
DA:501,1
DA:502,1
DA:503,1
DA:504,1
DA:505,1
DA:506,1
DA:507,0
DA:509,1
BRF:0
BRH:0
LF:351
LH:344
end_of_record
SF:/media/topleft/garden/hcaptcha-rs/hcaptcha/src/hcaptcha_client/hcaptcha_form.rs
FN:13,_RNCNvXNtNtCs8FL3BOWiKQp_8hcaptcha15hcaptcha_client13hcaptcha_formNtB4_12HcaptchaFormINtNtCs5cYH0lLSdLc_4core7convert4FromNtNtB8_16hcaptcha_request15HcaptchaRequestE4from0B8_
FN:14,_RNCNvXNtNtCs8FL3BOWiKQp_8hcaptcha15hcaptcha_client13hcaptcha_formNtB4_12HcaptchaFormINtNtCs5cYH0lLSdLc_4core7convert4FromNtNtB8_16hcaptcha_request15HcaptchaRequestE4froms_0B8_
FN:12,_RNvXNtNtCs8FL3BOWiKQp_8hcaptcha15hcaptcha_client13hcaptcha_formNtB2_12HcaptchaFormINtNtCs5cYH0lLSdLc_4core7convert4FromNtNtB6_16hcaptcha_request15HcaptchaRequestE4from
FNDA:1,_RNCNvXNtNtCs8FL3BOWiKQp_8hcaptcha15hcaptcha_client13hcaptcha_formNtB4_12HcaptchaFormINtNtCs5cYH0lLSdLc_4core7convert4FromNtNtB8_16hcaptcha_request15HcaptchaRequestE4from0B8_
FNDA:1,_RNCNvXNtNtCs8FL3BOWiKQp_8hcaptcha15hcaptcha_client13hcaptcha_formNtB4_12HcaptchaFormINtNtCs5cYH0lLSdLc_4core7convert4FromNtNtB8_16hcaptcha_request15HcaptchaRequestE4froms_0B8_
FNDA:3,_RNvXNtNtCs8FL3BOWiKQp_8hcaptcha15hcaptcha_client13hcaptcha_formNtB2_12HcaptchaFormINtNtCs5cYH0lLSdLc_4core7convert4FromNtNtB6_16hcaptcha_request15HcaptchaRequestE4from
FNF:3
FNH:3
DA:12,3
DA:13,3
DA:14,3
DA:15,3
DA:16,3
DA:17,3
DA:18,3
DA:19,3
DA:20,3
DA:21,3
DA:22,3
BRF:0
BRH:0
LF:13
LH:13
end_of_record
SF:/media/topleft/garden/hcaptcha-rs/hcaptcha/src/hcaptcha_error.rs
FN:84,_RINvXNtCs8FL3BOWiKQp_8hcaptcha14hcaptcha_errorNtB3_4CodeNtNtCsg9y1yQVR4yU_5serde2de11Deserialize11deserializeNtNtCsaWyhbh1Fb63_10serde_json5value5ValueEB5_
FN:84,_RINvXNtCs8FL3BOWiKQp_8hcaptcha14hcaptcha_errorNtB3_4CodeNtNtCsg9y1yQVR4yU_5serde2de11Deserialize11deserializeQINtNtCsaWyhbh1Fb63_10serde_json2de12DeserializerNtNtB1P_4read9SliceReadEEB5_
FN:103,_RINvXs_NtCs8FL3BOWiKQp_8hcaptcha14hcaptcha_errorNtB5_4CodeNtNtCsg9y1yQVR4yU_5serde3ser9Serialize9serializeQNtNtCs2UZMNicKlRI_10serde_test3ser10SerializerEB7_
FN:170,_RNvNtNtCs8FL3BOWiKQp_8hcaptcha14hcaptcha_error5testss_29test_serialize_missing_secret
FN:176,_RNvNtNtCs8FL3BOWiKQp_8hcaptcha14hcaptcha_error5testss_29test_serialize_invalid_secret
FN:182,_RNvNtNtCs8FL3BOWiKQp_8hcaptcha14hcaptcha_error5testss_30test_serialize_missing_user_ip
FN:188,_RNvNtNtCs8FL3BOWiKQp_8hcaptcha14hcaptcha_error5testss_30test_serialize_invalid_user_ip
FN:194,_RNvNtNtCs8FL3BOWiKQp_8hcaptcha14hcaptcha_error5testss_31test_serialize_missing_site_key
FN:200,_RNvNtNtCs8FL3BOWiKQp_8hcaptcha14hcaptcha_error5testss_31test_serialize_invalid_site_key
FN:206,_RNvNtNtCs8FL3BOWiKQp_8hcaptcha14hcaptcha_error5testss_31test_serialize_missing_response
FN:212,_RNvNtNtCs8FL3BOWiKQp_8hcaptcha14hcaptcha_error5testss_31test_serialize_invalid_response
FN:218,_RNvNtNtCs8FL3BOWiKQp_8hcaptcha14hcaptcha_error5testss_26test_serialize_bad_request
FN:224,_RNvNtNtCs8FL3BOWiKQp_8hcaptcha14hcaptcha_error5testss_35test_serialize_invalid_already_seen
FN:230,_RNvNtNtCs8FL3BOWiKQp_8hcaptcha14hcaptcha_error5testss_35test_serialize_site_secret_mismatch
FN:236,_RNvNtNtCs8FL3BOWiKQp_8hcaptcha14hcaptcha_error5testss_37test_serialize_secret_version_unknown
FN:242,_RNvNtNtCs8FL3BOWiKQp_8hcaptcha14hcaptcha_error5testss_33test_serialize_secret_ext_not_hex
FN:248,_RNvNtNtCs8FL3BOWiKQp_8hcaptcha14hcaptcha_error5testss_30test_serialize_unknown_variant
FN:254,_RNvNtNtCs8FL3BOWiKQp_8hcaptcha14hcaptcha_error5testss_43test_serialize_invalid_secret_ext_wrong_len
FN:260,_RNvNtNtCs8FL3BOWiKQp_8hcaptcha14hcaptcha_error5testss_23test_fmt_missing_secret
FN:267,_RNvNtNtCs8FL3BOWiKQp_8hcaptcha14hcaptcha_error5testss_23test_fmt_invalid_secret
FN:274,_RNvNtNtCs8FL3BOWiKQp_8hcaptcha14hcaptcha_error5testss_24test_fmt_missing_user_ip
FN:281,_RNvNtNtCs8FL3BOWiKQp_8hcaptcha14hcaptcha_error5testss_24test_fmt_invalid_user_ip
FN:288,_RNvNtNtCs8FL3BOWiKQp_8hcaptcha14hcaptcha_error5testss_25test_fmt_missing_site_key
FN:295,_RNvNtNtCs8FL3BOWiKQp_8hcaptcha14hcaptcha_error5testss_25test_fmt_invalid_site_key
FN:302,_RNvNtNtCs8FL3BOWiKQp_8hcaptcha14hcaptcha_error5testss_36test_fmt_invlid_secret_ext_wrong_len
FN:309,_RNvNtNtCs8FL3BOWiKQp_8hcaptcha14hcaptcha_error5testss_34test_fmt_invalid_secret_ext_no_hex
FN:316,_RNvNtNtCs8FL3BOWiKQp_8hcaptcha14hcaptcha_error5testss_25test_fmt_missing_response
FN:326,_RNvNtNtCs8FL3BOWiKQp_8hcaptcha14hcaptcha_error5testss_25test_fmt_invalid_response
FN:336,_RNvNtNtCs8FL3BOWiKQp_8hcaptcha14hcaptcha_error5testss_20test_fmt_bad_request
FN:343,_RNvNtNtCs8FL3BOWiKQp_8hcaptcha14hcaptcha_error5testss_29test_fmt_invalid_already_seen
FN:353,_RNvNtNtCs8FL3BOWiKQp_8hcaptcha14hcaptcha_error5testss_29test_fmt_site_secret_mismatch
FN:363,_RNvNtNtCs8FL3BOWiKQp_8hcaptcha14hcaptcha_error5testss_31test_fmt_secret_version_unknown
FN:373,_RNvNtNtCs8FL3BOWiKQp_8hcaptcha14hcaptcha_error5testss_35test_fmt_invalid_secret_ext_not_hex
FN:380,_RNvNtNtCs8FL3BOWiKQp_8hcaptcha14hcaptcha_error5testss_22test_fmt_unknown_error
FN:129,_RNvXs0_NtCs8FL3BOWiKQp_8hcaptcha14hcaptcha_errorNtB5_4CodeNtNtCs5cYH0lLSdLc_4core3fmt7Display3fmt
FNDA:20,_RINvXNtCs8FL3BOWiKQp_8hcaptcha14hcaptcha_errorNtB3_4CodeNtNtCsg9y1yQVR4yU_5serde2de11Deserialize11deserializeNtNtCsaWyhbh1Fb63_10serde_json5value5ValueEB5_
FNDA:0,_RINvXNtCs8FL3BOWiKQp_8hcaptcha14hcaptcha_errorNtB3_4CodeNtNtCsg9y1yQVR4yU_5serde2de11Deserialize11deserializeQINtNtCsaWyhbh1Fb63_10serde_json2de12DeserializerNtNtB1P_4read9SliceReadEEB5_
FNDA:15,_RINvXs_NtCs8FL3BOWiKQp_8hcaptcha14hcaptcha_errorNtB5_4CodeNtNtCsg9y1yQVR4yU_5serde3ser9Serialize9serializeQNtNtCs2UZMNicKlRI_10serde_test3ser10SerializerEB7_
FNDA:1,_RNvNtNtCs8FL3BOWiKQp_8hcaptcha14hcaptcha_error5testss_29test_serialize_missing_secret
FNDA:1,_RNvNtNtCs8FL3BOWiKQp_8hcaptcha14hcaptcha_error5testss_29test_serialize_invalid_secret
FNDA:1,_RNvNtNtCs8FL3BOWiKQp_8hcaptcha14hcaptcha_error5testss_30test_serialize_missing_user_ip
FNDA:1,_RNvNtNtCs8FL3BOWiKQp_8hcaptcha14hcaptcha_error5testss_30test_serialize_invalid_user_ip
FNDA:1,_RNvNtNtCs8FL3BOWiKQp_8hcaptcha14hcaptcha_error5testss_31test_serialize_missing_site_key
FNDA:1,_RNvNtNtCs8FL3BOWiKQp_8hcaptcha14hcaptcha_error5testss_31test_serialize_invalid_site_key
FNDA:1,_RNvNtNtCs8FL3BOWiKQp_8hcaptcha14hcaptcha_error5testss_31test_serialize_missing_response
FNDA:1,_RNvNtNtCs8FL3BOWiKQp_8hcaptcha14hcaptcha_error5testss_31test_serialize_invalid_response
FNDA:1,_RNvNtNtCs8FL3BOWiKQp_8hcaptcha14hcaptcha_error5testss_26test_serialize_bad_request
FNDA:1,_RNvNtNtCs8FL3BOWiKQp_8hcaptcha14hcaptcha_error5testss_35test_serialize_invalid_already_seen
FNDA:1,_RNvNtNtCs8FL3BOWiKQp_8hcaptcha14hcaptcha_error5testss_35test_serialize_site_secret_mismatch
FNDA:1,_RNvNtNtCs8FL3BOWiKQp_8hcaptcha14hcaptcha_error5testss_37test_serialize_secret_version_unknown
FNDA:1,_RNvNtNtCs8FL3BOWiKQp_8hcaptcha14hcaptcha_error5testss_33test_serialize_secret_ext_not_hex
FNDA:1,_RNvNtNtCs8FL3BOWiKQp_8hcaptcha14hcaptcha_error5testss_30test_serialize_unknown_variant
FNDA:1,_RNvNtNtCs8FL3BOWiKQp_8hcaptcha14hcaptcha_error5testss_43test_serialize_invalid_secret_ext_wrong_len
FNDA:1,_RNvNtNtCs8FL3BOWiKQp_8hcaptcha14hcaptcha_error5testss_23test_fmt_missing_secret
FNDA:1,_RNvNtNtCs8FL3BOWiKQp_8hcaptcha14hcaptcha_error5testss_23test_fmt_invalid_secret
FNDA:1,_RNvNtNtCs8FL3BOWiKQp_8hcaptcha14hcaptcha_error5testss_24test_fmt_missing_user_ip
FNDA:1,_RNvNtNtCs8FL3BOWiKQp_8hcaptcha14hcaptcha_error5testss_24test_fmt_invalid_user_ip
FNDA:1,_RNvNtNtCs8FL3BOWiKQp_8hcaptcha14hcaptcha_error5testss_25test_fmt_missing_site_key
FNDA:1,_RNvNtNtCs8FL3BOWiKQp_8hcaptcha14hcaptcha_error5testss_25test_fmt_invalid_site_key
FNDA:1,_RNvNtNtCs8FL3BOWiKQp_8hcaptcha14hcaptcha_error5testss_36test_fmt_invlid_secret_ext_wrong_len
FNDA:1,_RNvNtNtCs8FL3BOWiKQp_8hcaptcha14hcaptcha_error5testss_34test_fmt_invalid_secret_ext_no_hex
FNDA:1,_RNvNtNtCs8FL3BOWiKQp_8hcaptcha14hcaptcha_error5testss_25test_fmt_missing_response
FNDA:1,_RNvNtNtCs8FL3BOWiKQp_8hcaptcha14hcaptcha_error5testss_25test_fmt_invalid_response
FNDA:1,_RNvNtNtCs8FL3BOWiKQp_8hcaptcha14hcaptcha_error5testss_20test_fmt_bad_request
FNDA:1,_RNvNtNtCs8FL3BOWiKQp_8hcaptcha14hcaptcha_error5testss_29test_fmt_invalid_already_seen
FNDA:1,_RNvNtNtCs8FL3BOWiKQp_8hcaptcha14hcaptcha_error5testss_29test_fmt_site_secret_mismatch
FNDA:1,_RNvNtNtCs8FL3BOWiKQp_8hcaptcha14hcaptcha_error5testss_31test_fmt_secret_version_unknown
FNDA:1,_RNvNtNtCs8FL3BOWiKQp_8hcaptcha14hcaptcha_error5testss_35test_fmt_invalid_secret_ext_not_hex
FNDA:1,_RNvNtNtCs8FL3BOWiKQp_8hcaptcha14hcaptcha_error5testss_22test_fmt_unknown_error
FNDA:16,_RNvXs0_NtCs8FL3BOWiKQp_8hcaptcha14hcaptcha_errorNtB5_4CodeNtNtCs5cYH0lLSdLc_4core3fmt7Display3fmt
FNF:34
FNH:34
DA:84,20
DA:85,20
DA:86,20
DA:87,20
DA:88,20
DA:89,20
DA:90,20
DA:91,10
DA:92,10
DA:93,10
DA:94,10
DA:95,10
DA:96,10
DA:97,10
DA:99,20
DA:103,15
DA:104,15
DA:105,15
DA:106,15
DA:107,15
DA:108,1
DA:109,1
DA:110,1
DA:111,1
DA:112,1
DA:113,1
DA:114,1
DA:115,1
DA:116,1
DA:117,1
DA:118,1
DA:119,1
DA:120,1
DA:121,1
DA:122,1
DA:124,15
DA:129,16
DA:130,16
DA:131,1
DA:132,1
DA:133,1
DA:134,1
DA:135,1
DA:136,1
DA:138,1
DA:140,2
DA:142,1
DA:144,1
DA:145,1
DA:146,1
DA:147,1
DA:148,1
DA:149,1
DA:150,1
DA:151,1
DA:152,1
DA:154,1
DA:157,1
DA:159,1
DA:161,16
DA:170,1
DA:171,1
DA:172,1
DA:173,1
DA:176,1
DA:177,1
DA:178,1
DA:179,1
DA:182,1
DA:183,1
DA:184,1
DA:185,1
DA:188,1
DA:189,1
DA:190,1
DA:191,1
DA:194,1
DA:195,1
DA:196,1
DA:197,1
DA:200,1
DA:201,1
DA:202,1
DA:203,1
DA:206,1
DA:207,1
DA:208,1
DA:209,1
DA:212,1
DA:213,1
DA:214,1
DA:215,1
DA:218,1
DA:219,1
DA:220,1
DA:221,1
DA:224,1
DA:225,1
DA:226,1
DA:227,1
DA:230,1
DA:231,1
DA:232,1
DA:233,1
DA:236,1
DA:237,1
DA:238,1
DA:239,1
DA:242,1
DA:243,1
DA:244,1
DA:245,1
DA:248,1
DA:249,1
DA:250,1
DA:251,1
DA:254,1
DA:255,1
DA:256,1
DA:257,1
DA:260,1
DA:261,1
DA:262,1
DA:263,1
DA:264,1
DA:267,1
DA:268,1
DA:269,1
DA:270,1
DA:271,1
DA:274,1
DA:275,1
DA:276,1
DA:277,1
DA:278,1
DA:281,1
DA:282,1
DA:283,1
DA:284,1
DA:285,1
DA:288,1
DA:289,1
DA:290,1
DA:291,1
DA:292,1
DA:295,1
DA:296,1
DA:297,1
DA:298,1
DA:299,1
DA:302,1
DA:303,1
DA:304,1
DA:305,1
DA:306,1
DA:309,1
DA:310,1
DA:311,1
DA:312,1
DA:313,1
DA:316,1
DA:317,1
DA:318,1
DA:319,1
DA:320,1
DA:321,1
DA:322,1
DA:323,1
DA:326,1
DA:327,1
DA:328,1
DA:329,1
DA:330,1
DA:331,1
DA:332,1
DA:333,1
DA:336,1
DA:337,1
DA:338,1
DA:339,1
DA:340,1
DA:343,1
DA:344,1
DA:345,1
DA:346,1
DA:347,1
DA:348,1
DA:349,1
DA:350,1
DA:353,1
DA:354,1
DA:355,1
DA:356,1
DA:357,1
DA:358,1
DA:359,1
DA:360,1
DA:363,1
DA:364,1
DA:365,1
DA:366,1
DA:367,1
DA:368,1
DA:369,1
DA:370,1
DA:373,1
DA:374,1
DA:375,1
DA:376,1
DA:377,1
DA:380,1
DA:381,1
DA:382,1
DA:383,1
DA:384,1
DA:385,1
BRF:0
BRH:0
LF:216
LH:216
end_of_record
SF:/media/topleft/garden/hcaptcha-rs/hcaptcha/src/hcaptcha_request.rs
FN:348,_RNvNtNtCs8FL3BOWiKQp_8hcaptcha16hcaptcha_request5tests17random_hex_string
FN:359,_RNvNtNtCs8FL3BOWiKQp_8hcaptcha16hcaptcha_request5tests15random_response
FN:368,_RNvNtNtCs8FL3BOWiKQp_8hcaptcha16hcaptcha_request5tests13dummy_captcha
FN:378,_RNvNtNtCs8FL3BOWiKQp_8hcaptcha16hcaptcha_request5testss_29valid_new_from_captcha_struct
FN:386,_RNvNtNtCs8FL3BOWiKQp_8hcaptcha16hcaptcha_request5testss_23valid_new_from_response
FN:132,_RNvMNtCs8FL3BOWiKQp_8hcaptcha16hcaptcha_requestNtB2_15HcaptchaRequest3new
FN:193,_RNvMNtCs8FL3BOWiKQp_8hcaptcha16hcaptcha_requestNtB2_15HcaptchaRequest17new_from_response
FN:256,_RNvMNtCs8FL3BOWiKQp_8hcaptcha16hcaptcha_requestNtB2_15HcaptchaRequest12set_remoteip
FN:324,_RNvMNtCs8FL3BOWiKQp_8hcaptcha16hcaptcha_requestNtB2_15HcaptchaRequest11set_sitekey
FN:330,_RNvMNtCs8FL3BOWiKQp_8hcaptcha16hcaptcha_requestNtB2_15HcaptchaRequest6secret
FN:335,_RNvMNtCs8FL3BOWiKQp_8hcaptcha16hcaptcha_requestNtB2_15HcaptchaRequest7captcha
FN:351,_RNCNvNtNtCs8FL3BOWiKQp_8hcaptcha16hcaptcha_request5tests17random_hex_string0B7_
FN:362,_RNCNvNtNtCs8FL3BOWiKQp_8hcaptcha16hcaptcha_request5tests15random_response0B7_
FNDA:2,_RNvNtNtCs8FL3BOWiKQp_8hcaptcha16hcaptcha_request5tests17random_hex_string
FNDA:2,_RNvNtNtCs8FL3BOWiKQp_8hcaptcha16hcaptcha_request5tests15random_response
FNDA:1,_RNvNtNtCs8FL3BOWiKQp_8hcaptcha16hcaptcha_request5tests13dummy_captcha
FNDA:1,_RNvNtNtCs8FL3BOWiKQp_8hcaptcha16hcaptcha_request5testss_29valid_new_from_captcha_struct
FNDA:1,_RNvNtNtCs8FL3BOWiKQp_8hcaptcha16hcaptcha_request5testss_23valid_new_from_response
FNDA:5,_RNvMNtCs8FL3BOWiKQp_8hcaptcha16hcaptcha_requestNtB2_15HcaptchaRequest3new
FNDA:4,_RNvMNtCs8FL3BOWiKQp_8hcaptcha16hcaptcha_requestNtB2_15HcaptchaRequest17new_from_response
FNDA:1,_RNvMNtCs8FL3BOWiKQp_8hcaptcha16hcaptcha_requestNtB2_15HcaptchaRequest12set_remoteip
FNDA:1,_RNvMNtCs8FL3BOWiKQp_8hcaptcha16hcaptcha_requestNtB2_15HcaptchaRequest11set_sitekey
FNDA:4,_RNvMNtCs8FL3BOWiKQp_8hcaptcha16hcaptcha_requestNtB2_15HcaptchaRequest6secret
FNDA:9,_RNvMNtCs8FL3BOWiKQp_8hcaptcha16hcaptcha_requestNtB2_15HcaptchaRequest7captcha
FNDA:40,_RNCNvNtNtCs8FL3BOWiKQp_8hcaptcha16hcaptcha_request5tests17random_hex_string0B7_
FNDA:200,_RNCNvNtNtCs8FL3BOWiKQp_8hcaptcha16hcaptcha_request5tests15random_response0B7_
FNF:13
FNH:13
DA:132,5
DA:133,5
DA:134,5
DA:135,5
DA:137,5
DA:193,4
DA:194,4
DA:195,4
DA:196,4
DA:197,4
DA:198,4
DA:199,4
DA:256,1
DA:257,1
DA:258,1
DA:259,1
DA:324,1
DA:325,1
DA:326,1
DA:327,1
DA:330,4
DA:331,4
DA:332,4
DA:335,9
DA:336,9
DA:337,9
DA:348,2
DA:349,2
DA:350,2
DA:351,40
DA:352,2
DA:353,2
DA:354,2
DA:355,2
DA:356,2
DA:357,2
DA:359,2
DA:360,2
DA:361,2
DA:362,200
DA:363,2
DA:364,2
DA:365,2
DA:366,2
DA:368,1
DA:369,1
DA:370,1
DA:371,1
DA:372,1
DA:373,1
DA:374,1
DA:375,1
DA:378,1
DA:379,1
DA:380,1
DA:382,1
DA:383,1
DA:386,1
DA:387,1
DA:388,1
DA:389,1
DA:390,1
DA:391,1
DA:392,1
DA:395,1
DA:396,1
DA:397,1
DA:398,1
DA:399,1
DA:400,1
DA:401,1
DA:402,1
DA:403,1
BRF:0
BRH:0
LF:75
LH:75
end_of_record
SF:/media/topleft/garden/hcaptcha-rs/hcaptcha/src/hcaptcha_response.rs
FN:540,_RNvNtNtCs8FL3BOWiKQp_8hcaptcha17hcaptcha_response5tests13test_response
FN:521,_RNvNtNtCs8FL3BOWiKQp_8hcaptcha17hcaptcha_response5testss_13decoding_test
FN:554,_RNvNtNtCs8FL3BOWiKQp_8hcaptcha17hcaptcha_response5testss_12success_test
FN:561,_RNvNtNtCs8FL3BOWiKQp_8hcaptcha17hcaptcha_response5testss_14timestamp_test
FN:571,_RNvNtNtCs8FL3BOWiKQp_8hcaptcha17hcaptcha_response5testss_13hostname_test
FN:578,_RNvNtNtCs8FL3BOWiKQp_8hcaptcha17hcaptcha_response5testss_11credit_test
FN:585,_RNvNtNtCs8FL3BOWiKQp_8hcaptcha17hcaptcha_response5testss_16error_codes_test
FN:616,_RNvNtNtCs8FL3BOWiKQp_8hcaptcha17hcaptcha_response5testss_41test_successful_decoding_with_error_codes
FN:636,_RNvNtNtCs8FL3BOWiKQp_8hcaptcha17hcaptcha_response5testss_25test_error_codes_handling
FN:652,_RNvNtNtCs8FL3BOWiKQp_8hcaptcha17hcaptcha_response5testss_27test_success_field_decoding
FN:69,_RNvXNvXNvNtCs8FL3BOWiKQp_8hcaptcha17hcaptcha_response1__NtB7_16HcaptchaResponseNtNtCsg9y1yQVR4yU_5serde2de11Deserialize11deserializeNtB2_14___FieldVisitorNtB1h_7Visitor9expecting
FN:69,_RINvXNvXNvNtCs8FL3BOWiKQp_8hcaptcha17hcaptcha_response1__NtB8_16HcaptchaResponseNtNtCsg9y1yQVR4yU_5serde2de11Deserialize11deserializeNtB3_14___FieldVisitorNtB1i_7Visitor9visit_u64pEBa_
FN:69,_RINvXNvXNvNtCs8FL3BOWiKQp_8hcaptcha17hcaptcha_response1__NtB8_16HcaptchaResponseNtNtCsg9y1yQVR4yU_5serde2de11Deserialize11deserializeNtB3_14___FieldVisitorNtB1i_7Visitor11visit_bytespEBa_
FN:145,_RNvXNtCs8FL3BOWiKQp_8hcaptcha17hcaptcha_responseNtB2_16HcaptchaResponseNtNtCs5cYH0lLSdLc_4core3fmt7Display3fmt
FN:180,_RNvMs_NtCs8FL3BOWiKQp_8hcaptcha17hcaptcha_responseNtB4_16HcaptchaResponse11check_error
FN:233,_RNvMs_NtCs8FL3BOWiKQp_8hcaptcha17hcaptcha_responseNtB4_16HcaptchaResponse7success
FN:278,_RNvMs_NtCs8FL3BOWiKQp_8hcaptcha17hcaptcha_responseNtB4_16HcaptchaResponse8hostname
FN:323,_RNvMs_NtCs8FL3BOWiKQp_8hcaptcha17hcaptcha_responseNtB4_16HcaptchaResponse9timestamp
FN:369,_RNvMs_NtCs8FL3BOWiKQp_8hcaptcha17hcaptcha_responseNtB4_16HcaptchaResponse6credit
FN:414,_RNvMs_NtCs8FL3BOWiKQp_8hcaptcha17hcaptcha_responseNtB4_16HcaptchaResponse11error_codes
FN:69,_RNvXs0_NvXNvNtCs8FL3BOWiKQp_8hcaptcha17hcaptcha_response1__NtBa_16HcaptchaResponseNtNtCsg9y1yQVR4yU_5serde2de11Deserialize11deserializeNtB5_9___VisitorNtB1k_7Visitor9expecting
FN:69,_RINvXNvXNvNtCs8FL3BOWiKQp_8hcaptcha17hcaptcha_response1__NtB8_16HcaptchaResponseNtNtCsg9y1yQVR4yU_5serde2de11Deserialize11deserializeNtB3_14___FieldVisitorNtB1i_7Visitor9visit_strNtNtCsaWyhbh1Fb63_10serde_json5error5ErrorEBa_
FN:69,_RINvXs_NvXNvNtCs8FL3BOWiKQp_8hcaptcha17hcaptcha_response1__NtBa_16HcaptchaResponseNtNtCsg9y1yQVR4yU_5serde2de11Deserialize11deserializeNtB5_7___FieldB1i_11deserializeINtNtCsaWyhbh1Fb63_10serde_json2de6MapKeyNtNtB2J_4read9SliceReadEEBc_
FN:69,_RINvXs_NvXNvNtCs8FL3BOWiKQp_8hcaptcha17hcaptcha_response1__NtBa_16HcaptchaResponseNtNtCsg9y1yQVR4yU_5serde2de11Deserialize11deserializeNtB5_7___FieldB1i_11deserializeNtNtNtCsaWyhbh1Fb63_10serde_json5value2de18MapKeyDeserializerEBc_
FN:69,_RINvXs0_NvXNvNtCs8FL3BOWiKQp_8hcaptcha17hcaptcha_response1__NtBb_16HcaptchaResponseNtNtCsg9y1yQVR4yU_5serde2de11Deserialize11deserializeNtB6_9___VisitorNtB1l_7Visitor9visit_seqINtNtCsaWyhbh1Fb63_10serde_json2de9SeqAccessNtNtB2T_4read9SliceReadEEBd_
FN:69,_RINvXs0_NvXNvNtCs8FL3BOWiKQp_8hcaptcha17hcaptcha_response1__NtBb_16HcaptchaResponseNtNtCsg9y1yQVR4yU_5serde2de11Deserialize11deserializeNtB6_9___VisitorNtB1l_7Visitor9visit_seqQNtNtNtCsaWyhbh1Fb63_10serde_json5value2de15SeqDeserializerEBd_
FN:69,_RINvXs0_NvXNvNtCs8FL3BOWiKQp_8hcaptcha17hcaptcha_response1__NtBb_16HcaptchaResponseNtNtCsg9y1yQVR4yU_5serde2de11Deserialize11deserializeNtB6_9___VisitorNtB1l_7Visitor9visit_mapINtNtCsaWyhbh1Fb63_10serde_json2de9MapAccessNtNtB2T_4read9SliceReadEEBd_
FN:69,_RINvXs0_NvXNvNtCs8FL3BOWiKQp_8hcaptcha17hcaptcha_response1__NtBb_16HcaptchaResponseNtNtCsg9y1yQVR4yU_5serde2de11Deserialize11deserializeNtB6_9___VisitorNtB1l_7Visitor9visit_mapQNtNtNtCsaWyhbh1Fb63_10serde_json5value2de15MapDeserializerEBd_
FNDA:5,_RNvNtNtCs8FL3BOWiKQp_8hcaptcha17hcaptcha_response5tests13test_response
FNDA:1,_RNvNtNtCs8FL3BOWiKQp_8hcaptcha17hcaptcha_response5testss_13decoding_test
FNDA:1,_RNvNtNtCs8FL3BOWiKQp_8hcaptcha17hcaptcha_response5testss_12success_test
FNDA:1,_RNvNtNtCs8FL3BOWiKQp_8hcaptcha17hcaptcha_response5testss_14timestamp_test
FNDA:1,_RNvNtNtCs8FL3BOWiKQp_8hcaptcha17hcaptcha_response5testss_13hostname_test
FNDA:1,_RNvNtNtCs8FL3BOWiKQp_8hcaptcha17hcaptcha_response5testss_11credit_test
FNDA:1,_RNvNtNtCs8FL3BOWiKQp_8hcaptcha17hcaptcha_response5testss_16error_codes_test
FNDA:1,_RNvNtNtCs8FL3BOWiKQp_8hcaptcha17hcaptcha_response5testss_41test_successful_decoding_with_error_codes
FNDA:1,_RNvNtNtCs8FL3BOWiKQp_8hcaptcha17hcaptcha_response5testss_25test_error_codes_handling
FNDA:1,_RNvNtNtCs8FL3BOWiKQp_8hcaptcha17hcaptcha_response5testss_27test_success_field_decoding
FNDA:0,_RNvXNvXNvNtCs8FL3BOWiKQp_8hcaptcha17hcaptcha_response1__NtB7_16HcaptchaResponseNtNtCsg9y1yQVR4yU_5serde2de11Deserialize11deserializeNtB2_14___FieldVisitorNtB1h_7Visitor9expecting
FNDA:0,_RINvXNvXNvNtCs8FL3BOWiKQp_8hcaptcha17hcaptcha_response1__NtB8_16HcaptchaResponseNtNtCsg9y1yQVR4yU_5serde2de11Deserialize11deserializeNtB3_14___FieldVisitorNtB1i_7Visitor9visit_u64pEBa_
FNDA:0,_RINvXNvXNvNtCs8FL3BOWiKQp_8hcaptcha17hcaptcha_response1__NtB8_16HcaptchaResponseNtNtCsg9y1yQVR4yU_5serde2de11Deserialize11deserializeNtB3_14___FieldVisitorNtB1i_7Visitor11visit_bytespEBa_
FNDA:0,_RNvXNtCs8FL3BOWiKQp_8hcaptcha17hcaptcha_responseNtB2_16HcaptchaResponseNtNtCs5cYH0lLSdLc_4core3fmt7Display3fmt
FNDA:3,_RNvMs_NtCs8FL3BOWiKQp_8hcaptcha17hcaptcha_responseNtB4_16HcaptchaResponse11check_error
FNDA:9,_RNvMs_NtCs8FL3BOWiKQp_8hcaptcha17hcaptcha_responseNtB4_16HcaptchaResponse7success
FNDA:2,_RNvMs_NtCs8FL3BOWiKQp_8hcaptcha17hcaptcha_responseNtB4_16HcaptchaResponse8hostname
FNDA:5,_RNvMs_NtCs8FL3BOWiKQp_8hcaptcha17hcaptcha_responseNtB4_16HcaptchaResponse9timestamp
FNDA:1,_RNvMs_NtCs8FL3BOWiKQp_8hcaptcha17hcaptcha_responseNtB4_16HcaptchaResponse6credit
FNDA:4,_RNvMs_NtCs8FL3BOWiKQp_8hcaptcha17hcaptcha_responseNtB4_16HcaptchaResponse11error_codes
FNDA:0,_RNvXs0_NvXNvNtCs8FL3BOWiKQp_8hcaptcha17hcaptcha_response1__NtBa_16HcaptchaResponseNtNtCsg9y1yQVR4yU_5serde2de11Deserialize11deserializeNtB5_9___VisitorNtB1k_7Visitor9expecting
FNDA:70,_RINvXNvXNvNtCs8FL3BOWiKQp_8hcaptcha17hcaptcha_response1__NtB8_16HcaptchaResponseNtNtCsg9y1yQVR4yU_5serde2de11Deserialize11deserializeNtB3_14___FieldVisitorNtB1i_7Visitor9visit_strNtNtCsaWyhbh1Fb63_10serde_json5error5ErrorEBa_
FNDA:9,_RINvXs_NvXNvNtCs8FL3BOWiKQp_8hcaptcha17hcaptcha_response1__NtBa_16HcaptchaResponseNtNtCsg9y1yQVR4yU_5serde2de11Deserialize11deserializeNtB5_7___FieldB1i_11deserializeINtNtCsaWyhbh1Fb63_10serde_json2de6MapKeyNtNtB2J_4read9SliceReadEEBc_
FNDA:61,_RINvXs_NvXNvNtCs8FL3BOWiKQp_8hcaptcha17hcaptcha_response1__NtBa_16HcaptchaResponseNtNtCsg9y1yQVR4yU_5serde2de11Deserialize11deserializeNtB5_7___FieldB1i_11deserializeNtNtNtCsaWyhbh1Fb63_10serde_json5value2de18MapKeyDeserializerEBc_
FNDA:0,_RINvXs0_NvXNvNtCs8FL3BOWiKQp_8hcaptcha17hcaptcha_response1__NtBb_16HcaptchaResponseNtNtCsg9y1yQVR4yU_5serde2de11Deserialize11deserializeNtB6_9___VisitorNtB1l_7Visitor9visit_seqINtNtCsaWyhbh1Fb63_10serde_json2de9SeqAccessNtNtB2T_4read9SliceReadEEBd_
FNDA:0,_RINvXs0_NvXNvNtCs8FL3BOWiKQp_8hcaptcha17hcaptcha_response1__NtBb_16HcaptchaResponseNtNtCsg9y1yQVR4yU_5serde2de11Deserialize11deserializeNtB6_9___VisitorNtB1l_7Visitor9visit_seqQNtNtNtCsaWyhbh1Fb63_10serde_json5value2de15SeqDeserializerEBd_
FNDA:3,_RINvXs0_NvXNvNtCs8FL3BOWiKQp_8hcaptcha17hcaptcha_response1__NtBb_16HcaptchaResponseNtNtCsg9y1yQVR4yU_5serde2de11Deserialize11deserializeNtB6_9___VisitorNtB1l_7Visitor9visit_mapINtNtCsaWyhbh1Fb63_10serde_json2de9MapAccessNtNtB2T_4read9SliceReadEEBd_
FNDA:11,_RINvXs0_NvXNvNtCs8FL3BOWiKQp_8hcaptcha17hcaptcha_response1__NtBb_16HcaptchaResponseNtNtCsg9y1yQVR4yU_5serde2de11Deserialize11deserializeNtB6_9___VisitorNtB1l_7Visitor9visit_mapQNtNtNtCsaWyhbh1Fb63_10serde_json5value2de15MapDeserializerEBd_
FNF:18
FNH:17
DA:69,84
DA:145,0
DA:146,0
DA:147,0
DA:148,0
DA:149,0
DA:150,0
DA:151,0
DA:152,0
DA:153,0
DA:154,0
DA:155,0
DA:156,0
DA:157,0
DA:158,0
DA:160,0
DA:161,0
DA:162,0
DA:164,0
DA:165,0
DA:166,0
DA:168,0
DA:169,0
DA:170,0
DA:173,0
DA:180,3
DA:181,3
DA:182,0
DA:183,0
DA:185,0
DA:186,0
DA:187,0
DA:191,3
DA:193,3
DA:233,9
DA:234,9
DA:235,9
DA:278,2
DA:279,2
DA:280,2
DA:323,5
DA:324,5
DA:325,5
DA:369,1
DA:370,1
DA:371,1
DA:414,4
DA:415,4
DA:416,4
DA:521,1
DA:524,1
DA:525,1
DA:526,1
DA:527,1
DA:528,1
DA:529,1
DA:530,1
DA:531,1
DA:532,1
DA:534,1
DA:535,1
DA:536,1
DA:537,1
DA:538,1
DA:540,5
DA:541,5
DA:542,5
DA:543,5
DA:544,5
DA:545,5
DA:546,5
DA:547,5
DA:548,5
DA:549,5
DA:550,5
DA:551,5
DA:554,1
DA:555,1
DA:556,1
DA:557,1
DA:558,1
DA:561,1
DA:562,1
DA:563,1
DA:564,1
DA:565,1
DA:566,1
DA:567,1
DA:568,1
DA:571,1
DA:572,1
DA:573,1
DA:574,1
DA:575,1
DA:578,1
DA:579,1
DA:580,1
DA:581,1
DA:582,1
DA:585,1
DA:586,1
DA:587,1
DA:588,1
DA:589,1
DA:590,1
DA:591,0
DA:592,1
DA:616,1
DA:619,1
DA:620,1
DA:621,1
DA:622,1
DA:623,1
DA:624,1
DA:625,1
DA:626,1
DA:627,1
DA:629,1
DA:630,1
DA:631,1
DA:632,1
DA:633,1
DA:636,1
DA:639,1
DA:640,1
DA:641,1
DA:642,1
DA:643,1
DA:644,1
DA:645,1
DA:646,1
DA:647,1
DA:648,1
DA:649,1
DA:652,1
DA:653,1
DA:654,1
DA:655,1
DA:656,1
DA:657,1
DA:658,1
DA:659,1
DA:660,1
DA:661,1
BRF:0
BRH:0
LF:144
LH:114
end_of_record
SF:/media/topleft/garden/hcaptcha-rs/hcaptcha_derive/src/lib.rs
FN:292,_RNCNvCs3j1ahD2QXOe_15hcaptcha_derive14get_attributes0B3_
FN:293,_RNCNvCs3j1ahD2QXOe_15hcaptcha_derive14get_attributess_0B3_
FN:127,_RNCNvCs3j1ahD2QXOe_15hcaptcha_derive15hcaptcha_derive0B3_
FN:136,_RNvCs3j1ahD2QXOe_15hcaptcha_derive13impl_hcaptcha
FN:194,_RNvCs3j1ahD2QXOe_15hcaptcha_derive22get_optional_attribute
FN:227,_RNvCs3j1ahD2QXOe_15hcaptcha_derive22get_required_attribute
FN:265,_RNvCs3j1ahD2QXOe_15hcaptcha_derive15get_struct_data
FN:286,_RNvCs3j1ahD2QXOe_15hcaptcha_derive14get_attributes
FN:125,_RNvCs3j1ahD2QXOe_15hcaptcha_derive15hcaptcha_derive
FNDA:0,_RNCNvCs3j1ahD2QXOe_15hcaptcha_derive14get_attributes0B3_
FNDA:0,_RNCNvCs3j1ahD2QXOe_15hcaptcha_derive14get_attributess_0B3_
FNDA:0,_RNCNvCs3j1ahD2QXOe_15hcaptcha_derive15hcaptcha_derive0B3_
FNDA:0,_RNvCs3j1ahD2QXOe_15hcaptcha_derive13impl_hcaptcha
FNDA:0,_RNvCs3j1ahD2QXOe_15hcaptcha_derive22get_optional_attribute
FNDA:0,_RNvCs3j1ahD2QXOe_15hcaptcha_derive22get_required_attribute
FNDA:0,_RNvCs3j1ahD2QXOe_15hcaptcha_derive15get_struct_data
FNDA:0,_RNvCs3j1ahD2QXOe_15hcaptcha_derive14get_attributes
FNDA:0,_RNvCs3j1ahD2QXOe_15hcaptcha_derive15hcaptcha_derive
FNF:9
FNH:0
DA:125,0
DA:127,0
DA:128,0
DA:129,0
DA:130,0
DA:131,0
DA:132,0
DA:133,0
DA:136,0
DA:137,0
DA:138,0
DA:139,0
DA:140,0
DA:141,0
DA:142,0
DA:143,0
DA:144,0
DA:145,0
DA:146,0
DA:147,0
DA:148,0
DA:149,0
DA:150,0
DA:151,0
DA:152,0
DA:153,0
DA:154,0
DA:155,0
DA:156,0
DA:157,0
DA:158,0
DA:159,0
DA:160,0
DA:161,0
DA:162,0
DA:163,0
DA:164,0
DA:165,0
DA:166,0
DA:167,0
DA:168,0
DA:169,0
DA:170,0
DA:171,0
DA:172,0
DA:173,0
DA:174,0
DA:175,0
DA:176,0
DA:177,0
DA:178,0
DA:179,0
DA:180,0
DA:194,0
DA:195,0
DA:196,0
DA:197,0
DA:198,0
DA:199,0
DA:200,0
DA:201,0
DA:202,0
DA:203,0
DA:204,0
DA:205,0
DA:206,0
DA:207,0
DA:208,0
DA:209,0
DA:210,0
DA:212,0
DA:214,0
DA:227,0
DA:228,0
DA:229,0
DA:230,0
DA:231,0
DA:232,0
DA:233,0
DA:234,0
DA:235,0
DA:236,0
DA:237,0
DA:238,0
DA:239,0
DA:240,0
DA:241,0
DA:242,0
DA:243,0
DA:244,0
DA:247,0
DA:248,0
DA:249,0
DA:250,0
DA:251,0
DA:252,0
DA:253,0
DA:254,0
DA:255,0
DA:256,0
DA:257,0
DA:260,0
DA:265,0
DA:266,0
DA:267,0
DA:269,0
DA:270,0
DA:271,0
DA:272,0
DA:273,0
DA:274,0
DA:275,0
DA:276,0
DA:277,0
DA:278,0
DA:279,0
DA:282,0
DA:286,0
DA:287,0
DA:288,0
DA:289,0
DA:290,0
DA:291,0
DA:292,0
DA:293,0
DA:294,0
DA:295,0
DA:296,0
DA:297,0
DA:298,0
DA:299,0
DA:300,0
DA:301,0
DA:302,0
DA:303,0
BRF:0
BRH:0
LF:138
LH:0
end_of_record